target datalayout = "e-m:e-p270:32:32-p271:32:32-p272:64:64-i64:64-i128:128-f80:128-n8:16:32:64-S128"
target triple = "x86_64-pc-linux-gnu"

@.str = private unnamed_addr constant [8 x i8] c"phandle\00", align 1
@.str.1 = private unnamed_addr constant [14 x i8] c"linux,phandle\00", align 1

; Function Attrs: inlinehint nounwind uwtable
define internal i32 @cpu_to_fdt32(i32 noundef %0) #3 {
  %2 = alloca i32, align 4
  store i32 %0, ptr %2, align 4, !tbaa !7
  %3 = getelementptr inbounds i8, ptr %2, i64 0
  %4 = load i8, ptr %3, align 4, !tbaa !14
  %5 = zext i8 %4 to i64
  %6 = shl i64 %5, 24
  %7 = getelementptr inbounds i8, ptr %2, i64 1
  %8 = load i8, ptr %7, align 1, !tbaa !14
  %9 = zext i8 %8 to i64
  %10 = shl i64 %9, 16
  %11 = or i64 %6, %10
  %12 = getelementptr inbounds i8, ptr %2, i64 2
  %13 = load i8, ptr %12, align 2, !tbaa !14
  %14 = zext i8 %13 to i64
  %15 = shl i64 %14, 8
  %16 = or i64 %11, %15
  %17 = getelementptr inbounds i8, ptr %2, i64 3
  %18 = load i8, ptr %17, align 1, !tbaa !14
  %19 = zext i8 %18 to i64
  %20 = or i64 %16, %19
  %21 = trunc i64 %20 to i32
  ret i32 %21
}

; Function Attrs: inlinehint nounwind uwtable
define internal i32 @fdt_setprop_inplace_u32(ptr noundef %0, i32 noundef %1, ptr noundef %2, i32 noundef %3) #3 {
  %5 = alloca ptr, align 8
  %6 = alloca i32, align 4
  %7 = alloca ptr, align 8
  %8 = alloca i32, align 4
  %9 = alloca i32, align 4
  store ptr %0, ptr %5, align 8, !tbaa !3
  store i32 %1, ptr %6, align 4, !tbaa !7
  store ptr %2, ptr %7, align 8, !tbaa !12
  store i32 %3, ptr %8, align 4, !tbaa !7
  call void @llvm.lifetime.start.p0(i64 4, ptr %9) #7
  %10 = load i32, ptr %8, align 4, !tbaa !7
  %11 = call i32 @cpu_to_fdt32(i32 noundef %10)
  store i32 %11, ptr %9, align 4, !tbaa !7
  %12 = load ptr, ptr %5, align 8, !tbaa !3
  %13 = load i32, ptr %6, align 4, !tbaa !7
  %14 = load ptr, ptr %7, align 8, !tbaa !12
  %15 = call i32 @fdt_setprop_inplace(ptr noundef %12, i32 noundef %13, ptr noundef %14, ptr noundef %9, i32 noundef 4)
  call void @llvm.lifetime.end.p0(i64 4, ptr %9) #7
  ret i32 %15
}

; Function Attrs: inlinehint nounwind uwtable
define internal i32 @fdt32_to_cpu(i32 noundef %0) #3 {
  %2 = alloca i32, align 4
  store i32 %0, ptr %2, align 4, !tbaa !7
  %3 = getelementptr inbounds i8, ptr %2, i64 0
  %4 = load i8, ptr %3, align 4, !tbaa !14
  %5 = zext i8 %4 to i64
  %6 = shl i64 %5, 24
  %7 = getelementptr inbounds i8, ptr %2, i64 1
  %8 = load i8, ptr %7, align 1, !tbaa !14
  %9 = zext i8 %8 to i64
  %10 = shl i64 %9, 16
  %11 = or i64 %6, %10
  %12 = getelementptr inbounds i8, ptr %2, i64 2
  %13 = load i8, ptr %12, align 2, !tbaa !14
  %14 = zext i8 %13 to i64
  %15 = shl i64 %14, 8
  %16 = or i64 %11, %15
  %17 = getelementptr inbounds i8, ptr %2, i64 3
  %18 = load i8, ptr %17, align 1, !tbaa !14
  %19 = zext i8 %18 to i64
  %20 = or i64 %16, %19
  %21 = trunc i64 %20 to i32
  ret i32 %21
}

; Function Attrs: nounwind uwtable
define internal i32 @overlay_phandle_add_offset(ptr noundef %0, i32 noundef %1, ptr noundef %2, i32 noundef %3) #0 {
  %5 = alloca i32, align 4
  %6 = alloca ptr, align 8
  %7 = alloca i32, align 4
  %8 = alloca ptr, align 8
  %9 = alloca i32, align 4
  %10 = alloca ptr, align 8
  %11 = alloca i32, align 4
  %12 = alloca i32, align 4
  %13 = alloca i32, align 4
  store ptr %0, ptr %6, align 8, !tbaa !3
  store i32 %1, ptr %7, align 4, !tbaa !7
  store ptr %2, ptr %8, align 8, !tbaa !12
  store i32 %3, ptr %9, align 4, !tbaa !7
  call void @llvm.lifetime.start.p0(i64 8, ptr %10) #7
  call void @llvm.lifetime.start.p0(i64 4, ptr %11) #7
  call void @llvm.lifetime.start.p0(i64 4, ptr %12) #7
  %14 = load ptr, ptr %6, align 8, !tbaa !3
  %15 = load i32, ptr %7, align 4, !tbaa !7
  %16 = load ptr, ptr %8, align 8, !tbaa !12
  %17 = call ptr @fdt_getprop(ptr noundef %14, i32 noundef %15, ptr noundef %16, ptr noundef %12)
  store ptr %17, ptr %10, align 8, !tbaa !21
  %18 = load ptr, ptr %10, align 8, !tbaa !21
  %19 = icmp ne ptr %18, null
  br i1 %19, label %22, label %20

20:                                               ; preds = %4
  %21 = load i32, ptr %12, align 4, !tbaa !7
  store i32 %21, ptr %5, align 4
  store i32 1, ptr %13, align 4
  br label %50

22:                                               ; preds = %4
  %23 = load i32, ptr %12, align 4, !tbaa !7
  %24 = sext i32 %23 to i64
  %25 = icmp ne i64 %24, 4
  br i1 %25, label %26, label %27

26:                                               ; preds = %22
  store i32 -6, ptr %5, align 4
  store i32 1, ptr %13, align 4
  br label %50

27:                                               ; preds = %22
  %28 = load ptr, ptr %10, align 8, !tbaa !21
  %29 = load i32, ptr %28, align 4, !tbaa !7
  %30 = call i32 @fdt32_to_cpu(i32 noundef %29)
  store i32 %30, ptr %11, align 4, !tbaa !7
  %31 = load i32, ptr %11, align 4, !tbaa !7
  %32 = load i32, ptr %9, align 4, !tbaa !7
  %33 = add i32 %31, %32
  %34 = load i32, ptr %11, align 4, !tbaa !7
  %35 = icmp ult i32 %33, %34
  br i1 %35, label %36, label %37

36:                                               ; preds = %27
  store i32 -17, ptr %5, align 4
  store i32 1, ptr %13, align 4
  br label %50

37:                                               ; preds = %27
  %38 = load i32, ptr %9, align 4, !tbaa !7
  %39 = load i32, ptr %11, align 4, !tbaa !7
  %40 = add i32 %39, %38
  store i32 %40, ptr %11, align 4, !tbaa !7
  %41 = load i32, ptr %11, align 4, !tbaa !7
  %42 = icmp eq i32 %41, -1
  br i1 %42, label %43, label %44

43:                                               ; preds = %37
  store i32 -17, ptr %5, align 4
  store i32 1, ptr %13, align 4
  br label %50

44:                                               ; preds = %37
  %45 = load ptr, ptr %6, align 8, !tbaa !3
  %46 = load i32, ptr %7, align 4, !tbaa !7
  %47 = load ptr, ptr %8, align 8, !tbaa !12
  %48 = load i32, ptr %11, align 4, !tbaa !7
  %49 = call i32 @fdt_setprop_inplace_u32(ptr noundef %45, i32 noundef %46, ptr noundef %47, i32 noundef %48)
  store i32 %49, ptr %5, align 4
  store i32 1, ptr %13, align 4
  br label %50

50:                                               ; preds = %44, %43, %36, %26, %20
  call void @llvm.lifetime.end.p0(i64 4, ptr %12) #7
  call void @llvm.lifetime.end.p0(i64 4, ptr %11) #7
  call void @llvm.lifetime.end.p0(i64 8, ptr %10) #7
  %51 = load i32, ptr %5, align 4
  ret i32 %51
}

; Function Attrs: nounwind uwtable
define internal i32 @overlay_adjust_node_phandles(ptr noundef %0, i32 noundef %1, i32 noundef %2) #0 {
  %4 = alloca i32, align 4
  %5 = alloca ptr, align 8
  %6 = alloca i32, align 4
  %7 = alloca i32, align 4
  %8 = alloca i32, align 4
  %9 = alloca i32, align 4
  %10 = alloca i32, align 4
  store ptr %0, ptr %5, align 8, !tbaa !3
  store i32 %1, ptr %6, align 4, !tbaa !7
  store i32 %2, ptr %7, align 4, !tbaa !7
  call void @llvm.lifetime.start.p0(i64 4, ptr %8) #7
  call void @llvm.lifetime.start.p0(i64 4, ptr %9) #7
  %11 = load ptr, ptr %5, align 8, !tbaa !3
  %12 = load i32, ptr %6, align 4, !tbaa !7
  %13 = load i32, ptr %7, align 4, !tbaa !7
  %14 = call i32 @overlay_phandle_add_offset(ptr noundef %11, i32 noundef %12, ptr noundef @.str, i32 noundef %13)
  store i32 %14, ptr %9, align 4, !tbaa !7
  %15 = load i32, ptr %9, align 4, !tbaa !7
  %16 = icmp ne i32 %15, 0
  br i1 %16, label %17, label %22

17:                                               ; preds = %3
  %18 = load i32, ptr %9, align 4, !tbaa !7
  %19 = icmp ne i32 %18, -1
  br i1 %19, label %20, label %22

20:                                               ; preds = %17
  %21 = load i32, ptr %9, align 4, !tbaa !7
  store i32 %21, ptr %4, align 4
  store i32 1, ptr %10, align 4
  br label %56

22:                                               ; preds = %17, %3
  %23 = load ptr, ptr %5, align 8, !tbaa !3
  %24 = load i32, ptr %6, align 4, !tbaa !7
  %25 = load i32, ptr %7, align 4, !tbaa !7
  %26 = call i32 @overlay_phandle_add_offset(ptr noundef %23, i32 noundef %24, ptr noundef @.str.1, i32 noundef %25)
  store i32 %26, ptr %9, align 4, !tbaa !7
  %27 = load i32, ptr %9, align 4, !tbaa !7
  %28 = icmp ne i32 %27, 0
  br i1 %28, label %29, label %34

29:                                               ; preds = %22
  %30 = load i32, ptr %9, align 4, !tbaa !7
  %31 = icmp ne i32 %30, -1
  br i1 %31, label %32, label %34

32:                                               ; preds = %29
  %33 = load i32, ptr %9, align 4, !tbaa !7
  store i32 %33, ptr %4, align 4
  store i32 1, ptr %10, align 4
  br label %56

34:                                               ; preds = %29, %22
  %35 = load ptr, ptr %5, align 8, !tbaa !3
  %36 = load i32, ptr %6, align 4, !tbaa !7
  %37 = call i32 @fdt_first_subnode(ptr noundef %35, i32 noundef %36)
  store i32 %37, ptr %8, align 4, !tbaa !7
  br label %38

38:                                               ; preds = %51, %34
  %39 = load i32, ptr %8, align 4, !tbaa !7
  %40 = icmp sge i32 %39, 0
  br i1 %40, label %41, label %55

41:                                               ; preds = %38
  %42 = load ptr, ptr %5, align 8, !tbaa !3
  %43 = load i32, ptr %8, align 4, !tbaa !7
  %44 = load i32, ptr %7, align 4, !tbaa !7
  %45 = call i32 @overlay_adjust_node_phandles(ptr noundef %42, i32 noundef %43, i32 noundef %44)
  store i32 %45, ptr %9, align 4, !tbaa !7
  %46 = load i32, ptr %9, align 4, !tbaa !7
  %47 = icmp ne i32 %46, 0
  br i1 %47, label %48, label %50

48:                                               ; preds = %41
  %49 = load i32, ptr %9, align 4, !tbaa !7
  store i32 %49, ptr %4, align 4
  store i32 1, ptr %10, align 4
  br label %56

50:                                               ; preds = %41
  br label %51

51:                                               ; preds = %50
  %52 = load ptr, ptr %5, align 8, !tbaa !3
  %53 = load i32, ptr %8, align 4, !tbaa !7
  %54 = call i32 @fdt_next_subnode(ptr noundef %52, i32 noundef %53)
  store i32 %54, ptr %8, align 4, !tbaa !7
  br label %38, !llvm.loop !20

55:                                               ; preds = %38
  store i32 0, ptr %4, align 4
  store i32 1, ptr %10, align 4
  br label %56

56:                                               ; preds = %55, %48, %32, %20
  call void @llvm.lifetime.end.p0(i64 4, ptr %9) #7
  call void @llvm.lifetime.end.p0(i64 4, ptr %8) #7
  %57 = load i32, ptr %4, align 4
  ret i32 %57
}